#include <math.h>
#include <stdio.h>
#include <stdlib.h>
#include <string.h>


int main()
{
	int n,i,j,p,l,k;
	char s[50];
	scanf("%d",&n);
	for(i=1;i<=n;i++)
	{
		scanf("%s",s);
		l=strlen(s);
		if(s[l-1]=='r'&&s[l-2]=='e')
		{
			for(j=0;j<l-2;j++)
			{
				printf("%c",s[j]);
				
			}
			printf("\n");
		}
			else if(s[l-1]=='y'&&s[l-2]=='l')
			{
				for(k=0;k<l-2;k++)
				{
					printf("%c",s[k]);
				
				}
                  printf("\n");
			}
				else if(s[l-1]=='g'&&s[l-2]=='n'&&s[l-3]=='i')
				{
					for(p=0;p<l-3;p++)
					{
						printf("%c",s[p]);
						
					}
					printf("\n");
				}
					else 
						puts(s);
	}
				return 0;
}

