; ModuleID = 'source-C-CXX/56/1478.c'
source_filename = "source-C-CXX/56/1478.c"
target datalayout = "e-m:e-p270:32:32-p271:32:32-p272:64:64-i64:64-f80:128-n8:16:32:64-S128"
target triple = "x86_64-pc-linux-gnu"

@.str = private unnamed_addr constant [3 x i8] c"%d\00", align 1
@.str.1 = private unnamed_addr constant [3 x i8] c"%s\00", align 1

; Function Attrs: nofree nounwind sspstrong uwtable
define dso_local i32 @main() local_unnamed_addr #0 {
  %1 = alloca i32, align 4
  %2 = alloca [50 x i8], align 16
  %3 = bitcast i32* %1 to i8*
  call void @llvm.lifetime.start.p0i8(i64 4, i8* nonnull %3) #5
  %4 = getelementptr inbounds [50 x i8], [50 x i8]* %2, i64 0, i64 0
  call void @llvm.lifetime.start.p0i8(i64 50, i8* nonnull %4) #5
  %5 = call i32 (i8*, ...) @__isoc99_scanf(i8* getelementptr inbounds ([3 x i8], [3 x i8]* @.str, i64 0, i64 0), i32* nonnull %1)
  %6 = load i32, i32* %1, align 4, !tbaa !5
  %7 = icmp slt i32 %6, 1
  br i1 %7, label %90, label %8

8:                                                ; preds = %0, %86
  %9 = phi i32 [ %87, %86 ], [ 1, %0 ]
  %10 = call i32 (i8*, ...) @__isoc99_scanf(i8* getelementptr inbounds ([3 x i8], [3 x i8]* @.str.1, i64 0, i64 0), i8* nonnull %4)
  %11 = call i64 @strlen(i8* noundef nonnull %4) #6
  %12 = trunc i64 %11 to i32
  %13 = shl i64 %11, 32
  %14 = add i64 %13, -4294967296
  %15 = ashr exact i64 %14, 32
  %16 = getelementptr inbounds [50 x i8], [50 x i8]* %2, i64 0, i64 %15
  %17 = load i8, i8* %16, align 1, !tbaa !9
  switch i8 %17, label %84 [
    i8 114, label %18
    i8 121, label %38
    i8 103, label %58
  ]

18:                                               ; preds = %8
  %19 = add i32 %12, -2
  %20 = sext i32 %19 to i64
  %21 = getelementptr inbounds [50 x i8], [50 x i8]* %2, i64 0, i64 %20
  %22 = load i8, i8* %21, align 1, !tbaa !9
  %23 = icmp eq i8 %22, 101
  br i1 %23, label %24, label %84

24:                                               ; preds = %18
  %25 = icmp sgt i32 %12, 2
  br i1 %25, label %26, label %36

26:                                               ; preds = %24
  %27 = zext i32 %19 to i64
  br label %28

28:                                               ; preds = %26, %28
  %29 = phi i64 [ 0, %26 ], [ %34, %28 ]
  %30 = getelementptr inbounds [50 x i8], [50 x i8]* %2, i64 0, i64 %29
  %31 = load i8, i8* %30, align 1, !tbaa !9
  %32 = sext i8 %31 to i32
  %33 = call i32 @putchar(i32 %32)
  %34 = add nuw nsw i64 %29, 1
  %35 = icmp eq i64 %34, %27
  br i1 %35, label %36, label %28, !llvm.loop !10

36:                                               ; preds = %28, %24
  %37 = call i32 @putchar(i32 10)
  br label %86

38:                                               ; preds = %8
  %39 = add i32 %12, -2
  %40 = sext i32 %39 to i64
  %41 = getelementptr inbounds [50 x i8], [50 x i8]* %2, i64 0, i64 %40
  %42 = load i8, i8* %41, align 1, !tbaa !9
  %43 = icmp eq i8 %42, 108
  br i1 %43, label %44, label %84

44:                                               ; preds = %38
  %45 = icmp sgt i32 %12, 2
  br i1 %45, label %46, label %56

46:                                               ; preds = %44
  %47 = zext i32 %39 to i64
  br label %48

48:                                               ; preds = %46, %48
  %49 = phi i64 [ 0, %46 ], [ %54, %48 ]
  %50 = getelementptr inbounds [50 x i8], [50 x i8]* %2, i64 0, i64 %49
  %51 = load i8, i8* %50, align 1, !tbaa !9
  %52 = sext i8 %51 to i32
  %53 = call i32 @putchar(i32 %52)
  %54 = add nuw nsw i64 %49, 1
  %55 = icmp eq i64 %54, %47
  br i1 %55, label %56, label %48, !llvm.loop !12

56:                                               ; preds = %48, %44
  %57 = call i32 @putchar(i32 10)
  br label %86

58:                                               ; preds = %8
  %59 = add i64 %13, -8589934592
  %60 = ashr exact i64 %59, 32
  %61 = getelementptr inbounds [50 x i8], [50 x i8]* %2, i64 0, i64 %60
  %62 = load i8, i8* %61, align 1, !tbaa !9
  %63 = icmp eq i8 %62, 110
  br i1 %63, label %64, label %84

64:                                               ; preds = %58
  %65 = add i32 %12, -3
  %66 = sext i32 %65 to i64
  %67 = getelementptr inbounds [50 x i8], [50 x i8]* %2, i64 0, i64 %66
  %68 = load i8, i8* %67, align 1, !tbaa !9
  %69 = icmp eq i8 %68, 105
  br i1 %69, label %70, label %84

70:                                               ; preds = %64
  %71 = icmp sgt i32 %12, 3
  br i1 %71, label %72, label %82

72:                                               ; preds = %70
  %73 = zext i32 %65 to i64
  br label %74

74:                                               ; preds = %72, %74
  %75 = phi i64 [ 0, %72 ], [ %80, %74 ]
  %76 = getelementptr inbounds [50 x i8], [50 x i8]* %2, i64 0, i64 %75
  %77 = load i8, i8* %76, align 1, !tbaa !9
  %78 = sext i8 %77 to i32
  %79 = call i32 @putchar(i32 %78)
  %80 = add nuw nsw i64 %75, 1
  %81 = icmp eq i64 %80, %73
  br i1 %81, label %82, label %74, !llvm.loop !13

82:                                               ; preds = %74, %70
  %83 = call i32 @putchar(i32 10)
  br label %86

84:                                               ; preds = %8, %18, %38, %64, %58
  %85 = call i32 @puts(i8* nonnull %4)
  br label %86

86:                                               ; preds = %36, %82, %84, %56
  %87 = add nuw nsw i32 %9, 1
  %88 = load i32, i32* %1, align 4, !tbaa !5
  %89 = icmp slt i32 %9, %88
  br i1 %89, label %8, label %90, !llvm.loop !14

90:                                               ; preds = %86, %0
  call void @llvm.lifetime.end.p0i8(i64 50, i8* nonnull %4) #5
  call void @llvm.lifetime.end.p0i8(i64 4, i8* nonnull %3) #5
  ret i32 0
}

; Function Attrs: argmemonly mustprogress nofree nosync nounwind willreturn
declare void @llvm.lifetime.start.p0i8(i64 immarg, i8* nocapture) #1

; Function Attrs: nofree nounwind
declare noundef i32 @__isoc99_scanf(i8* nocapture noundef readonly, ...) local_unnamed_addr #2

; Function Attrs: argmemonly mustprogress nofree nounwind readonly willreturn
declare i64 @strlen(i8* nocapture) local_unnamed_addr #3

; Function Attrs: nofree nounwind
declare noundef i32 @puts(i8* nocapture noundef readonly) local_unnamed_addr #2

; Function Attrs: argmemonly mustprogress nofree nosync nounwind willreturn
declare void @llvm.lifetime.end.p0i8(i64 immarg, i8* nocapture) #1

; Function Attrs: nofree nounwind
declare noundef i32 @putchar(i32 noundef) local_unnamed_addr #4


!llvm.module.flags = !{!0, !1, !2, !3}
!llvm.ident = !{!4}

!0 = !{i32 1, !"wchar_size", i32 4}
!1 = !{i32 7, !"PIC Level", i32 2}
!2 = !{i32 7, !"PIE Level", i32 2}
!3 = !{i32 7, !"uwtable", i32 1}
!4 = !{!"clang version 13.0.0"}
!5 = !{!6, !6, i64 0}
!6 = !{!"int", !7, i64 0}
!7 = !{!"omnipotent char", !8, i64 0}
!8 = !{!"Simple C/C++ TBAA"}
!9 = !{!7, !7, i64 0}
!10 = distinct !{!10, !11}
!11 = !{!"llvm.loop.mustprogress"}
!12 = distinct !{!12, !11}
!13 = distinct !{!13, !11}
!14 = distinct !{!14, !11}
